; ModuleID = '27/2170.c'
source_filename = "27/2170.c"
target datalayout = "e-m:e-p270:32:32-p271:32:32-p272:64:64-i64:64-f80:128-n8:16:32:64-S128"
target triple = "x86_64-pc-linux-gnu"

@.str = private unnamed_addr constant [3 x i8] c"%d\00", align 1
@.str.1 = private unnamed_addr constant [10 x i8] c"%lf%lf%lf\00", align 1
@.str.2 = private unnamed_addr constant [19 x i8] c"x1=%.5lf;x2=%.5lf\0A\00", align 1
@.str.3 = private unnamed_addr constant [13 x i8] c"x1=x2=%.5lf\0A\00", align 1
@.str.4 = private unnamed_addr constant [33 x i8] c"x1=%.5lf+%.5lfi;x2=%.5lf-%.5lfi\0A\00", align 1

; Function Attrs: noinline nounwind uwtable
define dso_local i32 @main() #0 {
  %1 = alloca i32, align 4
  %2 = alloca i32, align 4
  %3 = alloca i32, align 4
  %4 = alloca double, align 8
  %5 = alloca double, align 8
  %6 = alloca double, align 8
  %7 = alloca double, align 8
  %8 = alloca double, align 8
  %9 = alloca double, align 8
  store i32 0, i32* %1, align 4
  %10 = call i32 (i8*, ...) @__isoc99_scanf(i8* getelementptr inbounds ([3 x i8], [3 x i8]* @.str, i64 0, i64 0), i32* %2)
  store i32 0, i32* %3, align 4
  br label %11

11:                                               ; preds = %137, %0
  %12 = load i32, i32* %3, align 4
  %13 = load i32, i32* %2, align 4
  %14 = icmp slt i32 %12, %13
  br i1 %14, label %15, label %140

15:                                               ; preds = %11
  %16 = call i32 (i8*, ...) @__isoc99_scanf(i8* getelementptr inbounds ([10 x i8], [10 x i8]* @.str.1, i64 0, i64 0), double* %4, double* %5, double* %6)
  %17 = load double, double* %5, align 8
  %18 = load double, double* %5, align 8
  %19 = fmul double %17, %18
  %20 = load double, double* %4, align 8
  %21 = fmul double 4.000000e+00, %20
  %22 = load double, double* %6, align 8
  %23 = fmul double %21, %22
  %24 = fsub double %19, %23
  store double %24, double* %7, align 8
  %25 = load double, double* %7, align 8
  %26 = fcmp ogt double %25, 0.000000e+00
  br i1 %26, label %27, label %61

27:                                               ; preds = %15
  %28 = load double, double* %5, align 8
  %29 = fneg double %28
  %30 = load double, double* %5, align 8
  %31 = load double, double* %5, align 8
  %32 = fmul double %30, %31
  %33 = load double, double* %4, align 8
  %34 = fmul double 4.000000e+00, %33
  %35 = load double, double* %6, align 8
  %36 = fmul double %34, %35
  %37 = fsub double %32, %36
  %38 = call double @sqrt(double %37) #3
  %39 = fadd double %29, %38
  %40 = load double, double* %4, align 8
  %41 = fmul double 2.000000e+00, %40
  %42 = fdiv double %39, %41
  store double %42, double* %8, align 8
  %43 = load double, double* %5, align 8
  %44 = fneg double %43
  %45 = load double, double* %5, align 8
  %46 = load double, double* %5, align 8
  %47 = fmul double %45, %46
  %48 = load double, double* %4, align 8
  %49 = fmul double 4.000000e+00, %48
  %50 = load double, double* %6, align 8
  %51 = fmul double %49, %50
  %52 = fsub double %47, %51
  %53 = call double @sqrt(double %52) #3
  %54 = fsub double %44, %53
  %55 = load double, double* %4, align 8
  %56 = fmul double 2.000000e+00, %55
  %57 = fdiv double %54, %56
  store double %57, double* %9, align 8
  %58 = load double, double* %8, align 8
  %59 = load double, double* %9, align 8
  %60 = call i32 (i8*, ...) @printf(i8* getelementptr inbounds ([19 x i8], [19 x i8]* @.str.2, i64 0, i64 0), double %58, double %59)
  br label %136

61:                                               ; preds = %15
  %62 = load double, double* %7, align 8
  %63 = fcmp oeq double %62, 0.000000e+00
  br i1 %63, label %64, label %82

64:                                               ; preds = %61
  %65 = load double, double* %5, align 8
  %66 = fneg double %65
  %67 = load double, double* %5, align 8
  %68 = load double, double* %5, align 8
  %69 = fmul double %67, %68
  %70 = load double, double* %4, align 8
  %71 = fmul double 4.000000e+00, %70
  %72 = load double, double* %6, align 8
  %73 = fmul double %71, %72
  %74 = fsub double %69, %73
  %75 = call double @sqrt(double %74) #3
  %76 = fadd double %66, %75
  %77 = load double, double* %4, align 8
  %78 = fmul double 2.000000e+00, %77
  %79 = fdiv double %76, %78
  store double %79, double* %8, align 8
  %80 = load double, double* %8, align 8
  %81 = call i32 (i8*, ...) @printf(i8* getelementptr inbounds ([13 x i8], [13 x i8]* @.str.3, i64 0, i64 0), double %80)
  br label %135

82:                                               ; preds = %61
  %83 = load double, double* %5, align 8
  %84 = fcmp oeq double %83, 0.000000e+00
  br i1 %84, label %85, label %109

85:                                               ; preds = %82
  %86 = load double, double* %5, align 8
  %87 = load double, double* %4, align 8
  %88 = fmul double 2.000000e+00, %87
  %89 = fdiv double %86, %88
  store double %89, double* %8, align 8
  %90 = load double, double* %4, align 8
  %91 = fmul double 4.000000e+00, %90
  %92 = load double, double* %6, align 8
  %93 = fmul double %91, %92
  %94 = load double, double* %5, align 8
  %95 = load double, double* %5, align 8
  %96 = fmul double %94, %95
  %97 = fsub double %93, %96
  %98 = load double, double* %4, align 8
  %99 = fmul double 4.000000e+00, %98
  %100 = load double, double* %4, align 8
  %101 = fmul double %99, %100
  %102 = fdiv double %97, %101
  %103 = call double @sqrt(double %102) #3
  store double %103, double* %9, align 8
  %104 = load double, double* %8, align 8
  %105 = load double, double* %9, align 8
  %106 = load double, double* %8, align 8
  %107 = load double, double* %9, align 8
  %108 = call i32 (i8*, ...) @printf(i8* getelementptr inbounds ([33 x i8], [33 x i8]* @.str.4, i64 0, i64 0), double %104, double %105, double %106, double %107)
  br label %134

109:                                              ; preds = %82
  %110 = load double, double* %5, align 8
  %111 = fneg double %110
  %112 = load double, double* %4, align 8
  %113 = fmul double 2.000000e+00, %112
  %114 = fdiv double %111, %113
  store double %114, double* %8, align 8
  %115 = load double, double* %4, align 8
  %116 = fmul double 4.000000e+00, %115
  %117 = load double, double* %6, align 8
  %118 = fmul double %116, %117
  %119 = load double, double* %5, align 8
  %120 = load double, double* %5, align 8
  %121 = fmul double %119, %120
  %122 = fsub double %118, %121
  %123 = load double, double* %4, align 8
  %124 = fmul double 4.000000e+00, %123
  %125 = load double, double* %4, align 8
  %126 = fmul double %124, %125
  %127 = fdiv double %122, %126
  %128 = call double @sqrt(double %127) #3
  store double %128, double* %9, align 8
  %129 = load double, double* %8, align 8
  %130 = load double, double* %9, align 8
  %131 = load double, double* %8, align 8
  %132 = load double, double* %9, align 8
  %133 = call i32 (i8*, ...) @printf(i8* getelementptr inbounds ([33 x i8], [33 x i8]* @.str.4, i64 0, i64 0), double %129, double %130, double %131, double %132)
  br label %134

134:                                              ; preds = %109, %85
  br label %135

135:                                              ; preds = %134, %64
  br label %136

136:                                              ; preds = %135, %27
  br label %137

137:                                              ; preds = %136
  %138 = load i32, i32* %3, align 4
  %139 = add nsw i32 %138, 1
  store i32 %139, i32* %3, align 4
  br label %11

140:                                              ; preds = %11
  ret i32 0
}

declare dso_local i32 @__isoc99_scanf(i8*, ...) #1

; Function Attrs: nounwind
declare dso_local double @sqrt(double) #2

declare dso_local i32 @printf(i8*, ...) #1


!llvm.module.flags = !{!0}
!llvm.ident = !{!1}

!0 = !{i32 1, !"wchar_size", i32 4}
!1 = !{!"clang version 10.0.0-4ubuntu1 "}
